target datalayout = "e-m:e-p270:32:32-p271:32:32-p272:64:64-i64:64-i128:128-f80:128-n8:16:32:64-S128"
target triple = "x86_64-pc-linux-gnu"

%"struct.base::(anonymous namespace)::SampleRecord" = type { i64, i32, i32 }
%"class.base::PersistentMemoryAllocator::Iterator" = type { ptr, %"struct.std::atomic", %"struct.std::atomic" }
%"struct.std::atomic" = type { %"struct.std::__atomic_base" }
%"struct.std::__atomic_base" = type { i32 }

; Function Attrs: mustprogress uwtable
define internal noundef ptr @_ZNK4base25PersistentMemoryAllocator11GetAsObjectINS_12_GLOBAL__N_112SampleRecordEEEPKT_jj(ptr noundef nonnull align 8 dereferenceable(48) %0, i32 noundef %1, i32 noundef %2) #0 align 2 {
  %4 = alloca ptr, align 8
  %5 = alloca i32, align 4
  %6 = alloca i32, align 4
  store ptr %0, ptr %4, align 8, !tbaa !74
  store i32 %1, ptr %5, align 4, !tbaa !34
  store i32 %2, ptr %6, align 4, !tbaa !34
  %7 = load ptr, ptr %4, align 8
  %8 = load i32, ptr %5, align 4, !tbaa !34
  %9 = load i32, ptr %6, align 4, !tbaa !34
  %10 = call noundef ptr @_ZNK4base25PersistentMemoryAllocator12GetBlockDataEjjj(ptr noundef nonnull align 8 dereferenceable(48) %7, i32 noundef %8, i32 noundef %9, i32 noundef 16)
  ret ptr %10
}

; Function Attrs: mustprogress uwtable
define internal noundef ptr @_ZNK4base25PersistentMemoryAllocator8Iterator11GetAsObjectINS_12_GLOBAL__N_112SampleRecordEEEPKT_jj(ptr noundef nonnull align 8 dereferenceable(16) %0, i32 noundef %1, i32 noundef %2) #0 align 2 {
  %4 = alloca ptr, align 8
  %5 = alloca i32, align 4
  %6 = alloca i32, align 4
  store ptr %0, ptr %4, align 8, !tbaa !64
  store i32 %1, ptr %5, align 4, !tbaa !34
  store i32 %2, ptr %6, align 4, !tbaa !34
  %7 = load ptr, ptr %4, align 8
  %8 = getelementptr inbounds nuw %"class.base::PersistentMemoryAllocator::Iterator", ptr %7, i32 0, i32 0
  %9 = load ptr, ptr %8, align 8, !tbaa !69
  %10 = load i32, ptr %5, align 4, !tbaa !34
  %11 = load i32, ptr %6, align 4, !tbaa !34
  %12 = call noundef ptr @_ZNK4base25PersistentMemoryAllocator11GetAsObjectINS_12_GLOBAL__N_112SampleRecordEEEPKT_jj(ptr noundef nonnull align 8 dereferenceable(48) %9, i32 noundef %10, i32 noundef %11)
  ret ptr %12
}

; Function Attrs: mustprogress uwtable
define noundef i32 @_ZN4base19PersistentSampleMap23GetNextPersistentRecordERNS_25PersistentMemoryAllocator8IteratorEPm(ptr noundef nonnull align 8 dereferenceable(16) %0, ptr noundef %1) #0 align 2 {
  %3 = alloca i32, align 4
  %4 = alloca ptr, align 8
  %5 = alloca ptr, align 8
  %6 = alloca i32, align 4
  %7 = alloca ptr, align 8
  %8 = alloca i32, align 4
  store ptr %0, ptr %4, align 8, !tbaa !64
  store ptr %1, ptr %5, align 8, !tbaa !66
  call void @llvm.lifetime.start.p0(i64 4, ptr %6) #14
  %9 = load ptr, ptr %4, align 8, !tbaa !64
  %10 = call noundef i32 @_ZN4base25PersistentMemoryAllocator8Iterator13GetNextOfTypeEj(ptr noundef nonnull align 8 dereferenceable(16) %9, i32 noundef -1880709472)
  store i32 %10, ptr %6, align 4, !tbaa !34
  call void @llvm.lifetime.start.p0(i64 8, ptr %7) #14
  %11 = load ptr, ptr %4, align 8, !tbaa !64
  %12 = load i32, ptr %6, align 4, !tbaa !34
  %13 = call noundef ptr @_ZNK4base25PersistentMemoryAllocator8Iterator11GetAsObjectINS_12_GLOBAL__N_112SampleRecordEEEPKT_jj(ptr noundef nonnull align 8 dereferenceable(16) %11, i32 noundef %12, i32 noundef -1880709472)
  store ptr %13, ptr %7, align 8, !tbaa !44
  %14 = load ptr, ptr %7, align 8, !tbaa !44
  %15 = icmp ne ptr %14, null
  br i1 %15, label %17, label %16

16:                                               ; preds = %2
  store i32 0, ptr %3, align 4
  store i32 1, ptr %8, align 4
  br label %23

17:                                               ; preds = %2
  %18 = load ptr, ptr %7, align 8, !tbaa !44
  %19 = getelementptr inbounds nuw %"struct.base::(anonymous namespace)::SampleRecord", ptr %18, i32 0, i32 0
  %20 = load i64, ptr %19, align 8, !tbaa !68
  %21 = load ptr, ptr %5, align 8, !tbaa !66
  store i64 %20, ptr %21, align 8, !tbaa !8
  %22 = load i32, ptr %6, align 4, !tbaa !34
  store i32 %22, ptr %3, align 4
  store i32 1, ptr %8, align 4
  br label %23

23:                                               ; preds = %17, %16
  call void @llvm.lifetime.end.p0(i64 8, ptr %7) #14
  call void @llvm.lifetime.end.p0(i64 4, ptr %6) #14
  %24 = load i32, ptr %3, align 4
  ret i32 %24
}