; Function Attrs: mustprogress uwtable
define noundef i32 @_ZN4base19PersistentSampleMap23GetNextPersistentRecordERNS_25PersistentMemoryAllocator8IteratorEPm(ptr noundef nonnull align 8 dereferenceable(16) %0, ptr noundef writeonly captures(none) %1) local_unnamed_addr #0 align 2 {
  %3 = tail call noundef i32 @_ZN4base25PersistentMemoryAllocator8Iterator13GetNextOfTypeEj(ptr noundef nonnull align 8 dereferenceable(16) %0, i32 noundef -1880709472)
  %.val = load ptr, ptr %0, align 8, !tbaa !72
  %4 = tail call noundef ptr @_ZNK4base25PersistentMemoryAllocator12GetBlockDataEjjj(ptr noundef nonnull align 8 dereferenceable(48) %.val, i32 noundef %3, i32 noundef -1880709472, i32 noundef 16)
  %.not = icmp eq ptr %4, null
  br i1 %.not, label %7, label %5

5:                                                ; preds = %2
  %6 = load i64, ptr %4, align 8, !tbaa !73
  store i64 %6, ptr %1, align 8, !tbaa !74
  br label %7

7:                                                ; preds = %2, %5
  %.0 = phi i32 [ %3, %5 ], [ 0, %2 ]
  ret i32 %.0
}